target datalayout = "e-m:e-p270:32:32-p271:32:32-p272:64:64-i64:64-i128:128-f80:128-n8:16:32:64-S128"
target triple = "x86_64-pc-linux-gnu"

; Function Attrs: nounwind uwtable
define internal void @hor_up_4x4_c(ptr noundef %0, i64 noundef %1, ptr noundef %2, ptr noundef %3) #1 {
  %5 = alloca ptr, align 8
  %6 = alloca i64, align 8
  %7 = alloca ptr, align 8
  %8 = alloca ptr, align 8
  %9 = alloca ptr, align 8
  %10 = alloca ptr, align 8
  %11 = alloca i32, align 4
  %12 = alloca i32, align 4
  %13 = alloca i32, align 4
  %14 = alloca i32, align 4
  store ptr %0, ptr %5, align 8, !tbaa !10
  store i64 %1, ptr %6, align 8, !tbaa !12
  store ptr %2, ptr %7, align 8, !tbaa !10
  store ptr %3, ptr %8, align 8, !tbaa !10
  call void @llvm.lifetime.start.p0(i64 8, ptr %9) #10
  %15 = load ptr, ptr %5, align 8, !tbaa !10
  store ptr %15, ptr %9, align 8, !tbaa !10
  call void @llvm.lifetime.start.p0(i64 8, ptr %10) #10
  %16 = load ptr, ptr %7, align 8, !tbaa !10
  store ptr %16, ptr %10, align 8, !tbaa !10
  call void @llvm.lifetime.start.p0(i64 4, ptr %11) #10
  %17 = load ptr, ptr %10, align 8, !tbaa !10
  %18 = getelementptr inbounds i8, ptr %17, i64 0
  %19 = load i8, ptr %18, align 1, !tbaa !14
  %20 = zext i8 %19 to i32
  store i32 %20, ptr %11, align 4, !tbaa !15
  call void @llvm.lifetime.start.p0(i64 4, ptr %12) #10
  %21 = load ptr, ptr %10, align 8, !tbaa !10
  %22 = getelementptr inbounds i8, ptr %21, i64 1
  %23 = load i8, ptr %22, align 1, !tbaa !14
  %24 = zext i8 %23 to i32
  store i32 %24, ptr %12, align 4, !tbaa !15
  call void @llvm.lifetime.start.p0(i64 4, ptr %13) #10
  %25 = load ptr, ptr %10, align 8, !tbaa !10
  %26 = getelementptr inbounds i8, ptr %25, i64 2
  %27 = load i8, ptr %26, align 1, !tbaa !14
  %28 = zext i8 %27 to i32
  store i32 %28, ptr %13, align 4, !tbaa !15
  call void @llvm.lifetime.start.p0(i64 4, ptr %14) #10
  %29 = load ptr, ptr %10, align 8, !tbaa !10
  %30 = getelementptr inbounds i8, ptr %29, i64 3
  %31 = load i8, ptr %30, align 1, !tbaa !14
  %32 = zext i8 %31 to i32
  store i32 %32, ptr %14, align 4, !tbaa !15
  %33 = load i64, ptr %6, align 8, !tbaa !12
  %34 = udiv i64 %33, 1
  store i64 %34, ptr %6, align 8, !tbaa !12
  %35 = load i32, ptr %11, align 4, !tbaa !15
  %36 = load i32, ptr %12, align 4, !tbaa !15
  %37 = add nsw i32 %35, %36
  %38 = add nsw i32 %37, 1
  %39 = ashr i32 %38, 1
  %40 = trunc i32 %39 to i8
  %41 = load ptr, ptr %9, align 8, !tbaa !10
  %42 = load i64, ptr %6, align 8, !tbaa !12
  %43 = mul nsw i64 0, %42
  %44 = add nsw i64 0, %43
  %45 = getelementptr inbounds i8, ptr %41, i64 %44
  store i8 %40, ptr %45, align 1, !tbaa !14
  %46 = load i32, ptr %11, align 4, !tbaa !15
  %47 = load i32, ptr %12, align 4, !tbaa !15
  %48 = mul nsw i32 %47, 2
  %49 = add nsw i32 %46, %48
  %50 = load i32, ptr %13, align 4, !tbaa !15
  %51 = add nsw i32 %49, %50
  %52 = add nsw i32 %51, 2
  %53 = ashr i32 %52, 2
  %54 = trunc i32 %53 to i8
  %55 = load ptr, ptr %9, align 8, !tbaa !10
  %56 = load i64, ptr %6, align 8, !tbaa !12
  %57 = mul nsw i64 0, %56
  %58 = add nsw i64 1, %57
  %59 = getelementptr inbounds i8, ptr %55, i64 %58
  store i8 %54, ptr %59, align 1, !tbaa !14
  %60 = load i32, ptr %12, align 4, !tbaa !15
  %61 = load i32, ptr %13, align 4, !tbaa !15
  %62 = add nsw i32 %60, %61
  %63 = add nsw i32 %62, 1
  %64 = ashr i32 %63, 1
  %65 = trunc i32 %64 to i8
  %66 = load ptr, ptr %9, align 8, !tbaa !10
  %67 = load i64, ptr %6, align 8, !tbaa !12
  %68 = mul nsw i64 0, %67
  %69 = add nsw i64 2, %68
  %70 = getelementptr inbounds i8, ptr %66, i64 %69
  store i8 %65, ptr %70, align 1, !tbaa !14
  %71 = load ptr, ptr %9, align 8, !tbaa !10
  %72 = load i64, ptr %6, align 8, !tbaa !12
  %73 = mul nsw i64 1, %72
  %74 = add nsw i64 0, %73
  %75 = getelementptr inbounds i8, ptr %71, i64 %74
  store i8 %65, ptr %75, align 1, !tbaa !14
  %76 = load i32, ptr %12, align 4, !tbaa !15
  %77 = load i32, ptr %13, align 4, !tbaa !15
  %78 = mul nsw i32 %77, 2
  %79 = add nsw i32 %76, %78
  %80 = load i32, ptr %14, align 4, !tbaa !15
  %81 = add nsw i32 %79, %80
  %82 = add nsw i32 %81, 2
  %83 = ashr i32 %82, 2
  %84 = trunc i32 %83 to i8
  %85 = load ptr, ptr %9, align 8, !tbaa !10
  %86 = load i64, ptr %6, align 8, !tbaa !12
  %87 = mul nsw i64 0, %86
  %88 = add nsw i64 3, %87
  %89 = getelementptr inbounds i8, ptr %85, i64 %88
  store i8 %84, ptr %89, align 1, !tbaa !14
  %90 = load ptr, ptr %9, align 8, !tbaa !10
  %91 = load i64, ptr %6, align 8, !tbaa !12
  %92 = mul nsw i64 1, %91
  %93 = add nsw i64 1, %92
  %94 = getelementptr inbounds i8, ptr %90, i64 %93
  store i8 %84, ptr %94, align 1, !tbaa !14
  %95 = load i32, ptr %13, align 4, !tbaa !15
  %96 = load i32, ptr %14, align 4, !tbaa !15
  %97 = add nsw i32 %95, %96
  %98 = add nsw i32 %97, 1
  %99 = ashr i32 %98, 1
  %100 = trunc i32 %99 to i8
  %101 = load ptr, ptr %9, align 8, !tbaa !10
  %102 = load i64, ptr %6, align 8, !tbaa !12
  %103 = mul nsw i64 1, %102
  %104 = add nsw i64 2, %103
  %105 = getelementptr inbounds i8, ptr %101, i64 %104
  store i8 %100, ptr %105, align 1, !tbaa !14
  %106 = load ptr, ptr %9, align 8, !tbaa !10
  %107 = load i64, ptr %6, align 8, !tbaa !12
  %108 = mul nsw i64 2, %107
  %109 = add nsw i64 0, %108
  %110 = getelementptr inbounds i8, ptr %106, i64 %109
  store i8 %100, ptr %110, align 1, !tbaa !14
  %111 = load i32, ptr %13, align 4, !tbaa !15
  %112 = load i32, ptr %14, align 4, !tbaa !15
  %113 = mul nsw i32 %112, 3
  %114 = add nsw i32 %111, %113
  %115 = add nsw i32 %114, 2
  %116 = ashr i32 %115, 2
  %117 = trunc i32 %116 to i8
  %118 = load ptr, ptr %9, align 8, !tbaa !10
  %119 = load i64, ptr %6, align 8, !tbaa !12
  %120 = mul nsw i64 1, %119
  %121 = add nsw i64 3, %120
  %122 = getelementptr inbounds i8, ptr %118, i64 %121
  store i8 %117, ptr %122, align 1, !tbaa !14
  %123 = load ptr, ptr %9, align 8, !tbaa !10
  %124 = load i64, ptr %6, align 8, !tbaa !12
  %125 = mul nsw i64 2, %124
  %126 = add nsw i64 1, %125
  %127 = getelementptr inbounds i8, ptr %123, i64 %126
  store i8 %117, ptr %127, align 1, !tbaa !14
  %128 = load i32, ptr %14, align 4, !tbaa !15
  %129 = trunc i32 %128 to i8
  %130 = load ptr, ptr %9, align 8, !tbaa !10
  %131 = load i64, ptr %6, align 8, !tbaa !12
  %132 = mul nsw i64 3, %131
  %133 = add nsw i64 3, %132
  %134 = getelementptr inbounds i8, ptr %130, i64 %133
  store i8 %129, ptr %134, align 1, !tbaa !14
  %135 = load ptr, ptr %9, align 8, !tbaa !10
  %136 = load i64, ptr %6, align 8, !tbaa !12
  %137 = mul nsw i64 2, %136
  %138 = add nsw i64 3, %137
  %139 = getelementptr inbounds i8, ptr %135, i64 %138
  store i8 %129, ptr %139, align 1, !tbaa !14
  %140 = load ptr, ptr %9, align 8, !tbaa !10
  %141 = load i64, ptr %6, align 8, !tbaa !12
  %142 = mul nsw i64 3, %141
  %143 = add nsw i64 2, %142
  %144 = getelementptr inbounds i8, ptr %140, i64 %143
  store i8 %129, ptr %144, align 1, !tbaa !14
  %145 = load ptr, ptr %9, align 8, !tbaa !10
  %146 = load i64, ptr %6, align 8, !tbaa !12
  %147 = mul nsw i64 2, %146
  %148 = add nsw i64 2, %147
  %149 = getelementptr inbounds i8, ptr %145, i64 %148
  store i8 %129, ptr %149, align 1, !tbaa !14
  %150 = load ptr, ptr %9, align 8, !tbaa !10
  %151 = load i64, ptr %6, align 8, !tbaa !12
  %152 = mul nsw i64 3, %151
  %153 = add nsw i64 1, %152
  %154 = getelementptr inbounds i8, ptr %150, i64 %153
  store i8 %129, ptr %154, align 1, !tbaa !14
  %155 = load ptr, ptr %9, align 8, !tbaa !10
  %156 = load i64, ptr %6, align 8, !tbaa !12
  %157 = mul nsw i64 3, %156
  %158 = add nsw i64 0, %157
  %159 = getelementptr inbounds i8, ptr %155, i64 %158
  store i8 %129, ptr %159, align 1, !tbaa !14
  call void @llvm.lifetime.end.p0(i64 4, ptr %14) #10
  call void @llvm.lifetime.end.p0(i64 4, ptr %13) #10
  call void @llvm.lifetime.end.p0(i64 4, ptr %12) #10
  call void @llvm.lifetime.end.p0(i64 4, ptr %11) #10
  call void @llvm.lifetime.end.p0(i64 8, ptr %10) #10
  call void @llvm.lifetime.end.p0(i64 8, ptr %9) #10
  ret void
}