; Function Attrs: mustprogress nofree norecurse nosync nounwind willreturn memory(argmem: readwrite) uwtable
define internal void @hor_up_4x4_c(ptr noundef writeonly captures(none) initializes((0, 4)) %0, i64 noundef %1, ptr noundef readonly captures(none) %2, ptr readnone captures(none) %3) #1 {
  %5 = load i8, ptr %2, align 1, !tbaa !8
  %6 = zext i8 %5 to i32
  %7 = getelementptr inbounds nuw i8, ptr %2, i64 1
  %8 = load i8, ptr %7, align 1, !tbaa !8
  %9 = zext i8 %8 to i32
  %10 = getelementptr inbounds nuw i8, ptr %2, i64 2
  %11 = load i8, ptr %10, align 1, !tbaa !8
  %12 = zext i8 %11 to i32
  %13 = getelementptr inbounds nuw i8, ptr %2, i64 3
  %14 = load i8, ptr %13, align 1, !tbaa !8
  %15 = zext i8 %14 to i32
  %16 = add nuw nsw i32 %9, 1
  %17 = add nuw nsw i32 %16, %6
  %18 = lshr i32 %17, 1
  %19 = trunc nuw i32 %18 to i8
  store i8 %19, ptr %0, align 1, !tbaa !8
  %20 = shl nuw nsw i32 %9, 1
  %21 = add nuw nsw i32 %12, 2
  %22 = add nuw nsw i32 %21, %6
  %23 = add nuw nsw i32 %22, %20
  %24 = lshr i32 %23, 2
  %25 = trunc nuw i32 %24 to i8
  %26 = getelementptr inbounds nuw i8, ptr %0, i64 1
  store i8 %25, ptr %26, align 1, !tbaa !8
  %27 = add nuw nsw i32 %16, %12
  %28 = lshr i32 %27, 1
  %29 = trunc nuw i32 %28 to i8
  %30 = getelementptr inbounds nuw i8, ptr %0, i64 2
  store i8 %29, ptr %30, align 1, !tbaa !8
  %31 = getelementptr inbounds i8, ptr %0, i64 %1
  store i8 %29, ptr %31, align 1, !tbaa !8
  %32 = shl nuw nsw i32 %12, 1
  %33 = add nuw nsw i32 %9, 2
  %34 = add nuw nsw i32 %33, %32
  %35 = add nuw nsw i32 %34, %15
  %36 = lshr i32 %35, 2
  %37 = trunc nuw i32 %36 to i8
  %38 = getelementptr inbounds nuw i8, ptr %0, i64 3
  store i8 %37, ptr %38, align 1, !tbaa !8
  %39 = getelementptr i8, ptr %31, i64 1
  store i8 %37, ptr %39, align 1, !tbaa !8
  %40 = add nuw nsw i32 %12, 1
  %41 = add nuw nsw i32 %40, %15
  %42 = lshr i32 %41, 1
  %43 = trunc nuw i32 %42 to i8
  %44 = getelementptr i8, ptr %31, i64 2
  store i8 %43, ptr %44, align 1, !tbaa !8
  %45 = shl nsw i64 %1, 1
  %46 = getelementptr inbounds i8, ptr %0, i64 %45
  store i8 %43, ptr %46, align 1, !tbaa !8
  %47 = mul nuw nsw i32 %15, 3
  %48 = add nuw nsw i32 %21, %47
  %49 = lshr i32 %48, 2
  %50 = trunc nuw i32 %49 to i8
  %51 = getelementptr i8, ptr %31, i64 3
  store i8 %50, ptr %51, align 1, !tbaa !8
  %52 = getelementptr i8, ptr %46, i64 1
  store i8 %50, ptr %52, align 1, !tbaa !8
  %53 = mul nsw i64 %1, 3
  %54 = getelementptr i8, ptr %0, i64 %53
  %55 = getelementptr i8, ptr %54, i64 3
  store i8 %14, ptr %55, align 1, !tbaa !8
  %56 = getelementptr i8, ptr %46, i64 3
  store i8 %14, ptr %56, align 1, !tbaa !8
  %57 = getelementptr i8, ptr %54, i64 2
  store i8 %14, ptr %57, align 1, !tbaa !8
  %58 = getelementptr i8, ptr %46, i64 2
  store i8 %14, ptr %58, align 1, !tbaa !8
  %59 = getelementptr i8, ptr %54, i64 1
  store i8 %14, ptr %59, align 1, !tbaa !8
  store i8 %14, ptr %54, align 1, !tbaa !8
  ret void
}